; Function Attrs: mustprogress uwtable
define dso_local noundef zeroext i1 @_ZNK5vcpkg11RegistrySet27is_default_builtin_registryEv(ptr nocapture noundef nonnull readonly align 8 dereferenceable(32) %0) local_unnamed_addr #2 align 2 {
  %2 = load ptr, ptr %0, align 8
  %.not = icmp eq ptr %2, null
  br i1 %.not, label %10, label %3

3:                                                ; preds = %1
  %4 = load ptr, ptr %2, align 8
  %5 = load ptr, ptr %4, align 8
  %6 = tail call { ptr, i64 } %5(ptr noundef nonnull align 8 dereferenceable(8) %2)
  %7 = extractvalue { ptr, i64 } %6, 0
  %8 = extractvalue { ptr, i64 } %6, 1
  %9 = tail call noundef zeroext i1 @_ZN5vcpkgeqENS_10StringViewES0_(ptr %7, i64 %8, ptr nonnull @.str.4, i64 13) #26
  br label %10

10:                                               ; preds = %3, %1
  %11 = phi i1 [ false, %1 ], [ %9, %3 ]
  ret i1 %11
}